target datalayout = "e-m:e-p270:32:32-p271:32:32-p272:64:64-i64:64-i128:128-f80:128-n8:16:32:64-S128"
target triple = "x86_64-unknown-linux-gnu"

@_ZN4node2fs9FSReqBaseD1Ev = dso_local unnamed_addr alias void (ptr), ptr @_ZN4node2fs9FSReqBaseD2Ev

; Function Attrs: nounwind uwtable
define dso_local void @_ZThn56_N4node2fs9FSReqBaseD1Ev(ptr noundef %this) unnamed_addr #0 align 2 {
entry:
  %this.addr = alloca ptr, align 8
  store ptr %this, ptr %this.addr, align 8
  %this1 = load ptr, ptr %this.addr, align 8
  %0 = getelementptr inbounds i8, ptr %this1, i64 -56
  tail call void @_ZN4node2fs9FSReqBaseD1Ev(ptr noundef nonnull align 8 dereferenceable(648) %0) #3
  ret void
}