; Function Attrs: nounwind uwtable
define dso_local void @_ZThn56_N4node2fs9FSReqBaseD1Ev(ptr noundef %this) unnamed_addr #4 align 2 {
entry:
  %0 = getelementptr inbounds i8, ptr %this, i64 -56
  store ptr getelementptr inbounds ({ [27 x ptr], [6 x ptr] }, ptr @_ZTVN4node2fs9FSReqBaseE, i64 0, i32 0, i64 2), ptr %0, align 8
  store ptr getelementptr inbounds ({ [27 x ptr], [6 x ptr] }, ptr @_ZTVN4node2fs9FSReqBaseE, i64 0, i32 1, i64 2), ptr %this, align 8
  %buf_.i.i.i.i = getelementptr inbounds i8, ptr %this, i64 520
  %1 = load ptr, ptr %buf_.i.i.i.i, align 8
  %cmp.i.i.i.i = icmp ne ptr %1, null
  %buf_st_.i.i.i = getelementptr inbounds i8, ptr %this, i64 528
  %cmp.i.i.i = icmp ne ptr %1, %buf_st_.i.i.i
  %2 = select i1 %cmp.i.i.i.i, i1 %cmp.i.i.i, i1 false
  br i1 %2, label %if.then.i.i, label %_ZN4node16MaybeStackBufferIcLm64EED2Ev.exit.i

if.then.i.i:                                      ; preds = %entry
  tail call void @free(ptr noundef nonnull %1) #30
  br label %_ZN4node16MaybeStackBufferIcLm64EED2Ev.exit.i

_ZN4node16MaybeStackBufferIcLm64EED2Ev.exit.i:    ; preds = %if.then.i.i, %entry
  %binding_data_.i = getelementptr inbounds i8, ptr %this, i64 496
  %3 = load ptr, ptr %binding_data_.i, align 8
  %cmp.not.i.i = icmp eq ptr %3, null
  br i1 %cmp.not.i.i, label %_ZN4node17BaseObjectPtrImplINS_2fs11BindingDataELb0EED2Ev.exit.i, label %if.then.i1.i

if.then.i1.i:                                     ; preds = %_ZN4node16MaybeStackBufferIcLm64EED2Ev.exit.i
  tail call void @_ZN4node10BaseObject17decrease_refcountEv(ptr noundef nonnull align 8 dereferenceable(32) %3) #30
  br label %_ZN4node17BaseObjectPtrImplINS_2fs11BindingDataELb0EED2Ev.exit.i

_ZN4node17BaseObjectPtrImplINS_2fs11BindingDataELb0EED2Ev.exit.i: ; preds = %if.then.i1.i, %_ZN4node16MaybeStackBufferIcLm64EED2Ev.exit.i
  %continuation_data_.i = getelementptr inbounds i8, ptr %this, i64 472
  %4 = load ptr, ptr %continuation_data_.i, align 8
  %cmp.not.i2.i = icmp eq ptr %4, null
  br i1 %cmp.not.i2.i, label %_ZN4node2fs9FSReqBaseD2Ev.exit, label %_ZNKSt14default_deleteIN4node2fs18FSContinuationDataEEclEPS2_.exit.i.i

_ZNKSt14default_deleteIN4node2fs18FSContinuationDataEEclEPS2_.exit.i.i: ; preds = %_ZN4node17BaseObjectPtrImplINS_2fs11BindingDataELb0EED2Ev.exit.i
  %vtable.i.i.i = load ptr, ptr %4, align 8
  %vfn.i.i.i = getelementptr inbounds i8, ptr %vtable.i.i.i, i64 8
  %5 = load ptr, ptr %vfn.i.i.i, align 8
  tail call void %5(ptr noundef nonnull align 8 dereferenceable(88) %4) #30
  br label %_ZN4node2fs9FSReqBaseD2Ev.exit

_ZN4node2fs9FSReqBaseD2Ev.exit:                   ; preds = %_ZN4node17BaseObjectPtrImplINS_2fs11BindingDataELb0EED2Ev.exit.i, %_ZNKSt14default_deleteIN4node2fs18FSContinuationDataEEclEPS2_.exit.i.i
  store ptr null, ptr %continuation_data_.i, align 8
  store ptr getelementptr inbounds ({ [6 x ptr] }, ptr @_ZTVN4node11ReqWrapBaseE, i64 0, i32 0, i64 2), ptr %this, align 8
  %req_wrap_queue_.i.i.i = getelementptr inbounds i8, ptr %this, i64 8
  %next_.i.i.i.i.i = getelementptr inbounds i8, ptr %this, i64 16
  %6 = load ptr, ptr %next_.i.i.i.i.i, align 8
  %7 = load ptr, ptr %req_wrap_queue_.i.i.i, align 8
  %next_2.i.i.i.i.i = getelementptr inbounds i8, ptr %7, i64 8
  store ptr %6, ptr %next_2.i.i.i.i.i, align 8
  %8 = load ptr, ptr %req_wrap_queue_.i.i.i, align 8
  store ptr %8, ptr %6, align 8
  store ptr %req_wrap_queue_.i.i.i, ptr %req_wrap_queue_.i.i.i, align 8
  store ptr %req_wrap_queue_.i.i.i, ptr %next_.i.i.i.i.i, align 8
  tail call void @_ZN4node9AsyncWrapD2Ev(ptr noundef nonnull align 8 dereferenceable(56) %0) #30
  ret void
}